; Function Attrs: mustprogress nounwind uwtable
define internal fastcc void @_ZN8facebook5velox4exec12_GLOBAL__N_120ExprExceptionContextD2Ev(ptr noundef nonnull align 8 dereferenceable(120) %this) unnamed_addr #1 align 2 {
entry:
  %allExprSqlPath_ = getelementptr inbounds i8, ptr %this, i64 88
  tail call void @_ZNSt7__cxx1112basic_stringIcSt11char_traitsIcESaIcEED1Ev(ptr noundef nonnull align 8 dereferenceable(32) %allExprSqlPath_) #31
  %sqlPath_ = getelementptr inbounds i8, ptr %this, i64 56
  tail call void @_ZNSt7__cxx1112basic_stringIcSt11char_traitsIcESaIcEED1Ev(ptr noundef nonnull align 8 dereferenceable(32) %sqlPath_) #31
  %dataPath_ = getelementptr inbounds i8, ptr %this, i64 24
  tail call void @_ZNSt7__cxx1112basic_stringIcSt11char_traitsIcESaIcEED1Ev(ptr noundef nonnull align 8 dereferenceable(32) %dataPath_) #31
  ret void
}